target datalayout = "e-m:e-p270:32:32-p271:32:32-p272:64:64-i64:64-i128:128-f80:128-n8:16:32:64-S128"
target triple = "x86_64-pc-linux-gnu"

%struct.gz_state = type { %struct.gzFile_s, i32, i32, ptr, i32, i32, ptr, ptr, i32, i32, i64, i32, i32, i32, i32, i32, i64, i32, i32, ptr, %struct.z_stream_s }
%struct.gzFile_s = type { i32, ptr, i64 }
%struct.z_stream_s = type { ptr, i32, i64, ptr, i32, i64, ptr, ptr, ptr, ptr, ptr, i32, i64, i64 }

@.str = private unnamed_addr constant [31 x i8] c"request does not fit in an int\00", align 1

; Function Attrs: nounwind uwtable
define i32 @gzread(ptr noundef %0, ptr noundef %1, i32 noundef %2) #0 {
  %4 = alloca i32, align 4
  %5 = alloca ptr, align 8
  %6 = alloca ptr, align 8
  %7 = alloca i32, align 4
  %8 = alloca ptr, align 8
  %9 = alloca i32, align 4
  store ptr %0, ptr %5, align 8, !tbaa !3
  store ptr %1, ptr %6, align 8, !tbaa !8
  store i32 %2, ptr %7, align 4, !tbaa !9
  call void @llvm.lifetime.start.p0(i64 8, ptr %8) #8
  %10 = load ptr, ptr %5, align 8, !tbaa !3
  %11 = icmp eq ptr %10, null
  br i1 %11, label %12, label %13

12:                                               ; preds = %3
  store i32 -1, ptr %4, align 4
  store i32 1, ptr %9, align 4
  br label %57

13:                                               ; preds = %3
  %14 = load ptr, ptr %5, align 8, !tbaa !3
  store ptr %14, ptr %8, align 8, !tbaa !8
  %15 = load ptr, ptr %8, align 8, !tbaa !8
  %16 = getelementptr inbounds nuw %struct.gz_state, ptr %15, i32 0, i32 1
  %17 = load i32, ptr %16, align 8, !tbaa !11
  %18 = icmp ne i32 %17, 7247
  br i1 %18, label %29, label %19

19:                                               ; preds = %13
  %20 = load ptr, ptr %8, align 8, !tbaa !8
  %21 = getelementptr inbounds nuw %struct.gz_state, ptr %20, i32 0, i32 18
  %22 = load i32, ptr %21, align 4, !tbaa !18
  %23 = icmp ne i32 %22, 0
  br i1 %23, label %24, label %30

24:                                               ; preds = %19
  %25 = load ptr, ptr %8, align 8, !tbaa !8
  %26 = getelementptr inbounds nuw %struct.gz_state, ptr %25, i32 0, i32 18
  %27 = load i32, ptr %26, align 4, !tbaa !18
  %28 = icmp ne i32 %27, -5
  br i1 %28, label %29, label %30

29:                                               ; preds = %24, %13
  store i32 -1, ptr %4, align 4
  store i32 1, ptr %9, align 4
  br label %57

30:                                               ; preds = %24, %19
  %31 = load i32, ptr %7, align 4, !tbaa !9
  %32 = icmp slt i32 %31, 0
  br i1 %32, label %33, label %35

33:                                               ; preds = %30
  %34 = load ptr, ptr %8, align 8, !tbaa !8
  call void @gz_error(ptr noundef %34, i32 noundef -2, ptr noundef @.str)
  store i32 -1, ptr %4, align 4
  store i32 1, ptr %9, align 4
  br label %57

35:                                               ; preds = %30
  %36 = load ptr, ptr %8, align 8, !tbaa !8
  %37 = load ptr, ptr %6, align 8, !tbaa !8
  %38 = load i32, ptr %7, align 4, !tbaa !9
  %39 = zext i32 %38 to i64
  %40 = call i64 @gz_read(ptr noundef %36, ptr noundef %37, i64 noundef %39)
  %41 = trunc i64 %40 to i32
  store i32 %41, ptr %7, align 4, !tbaa !9
  %42 = load i32, ptr %7, align 4, !tbaa !9
  %43 = icmp eq i32 %42, 0
  br i1 %43, label %44, label %55

44:                                               ; preds = %35
  %45 = load ptr, ptr %8, align 8, !tbaa !8
  %46 = getelementptr inbounds nuw %struct.gz_state, ptr %45, i32 0, i32 18
  %47 = load i32, ptr %46, align 4, !tbaa !18
  %48 = icmp ne i32 %47, 0
  br i1 %48, label %49, label %55

49:                                               ; preds = %44
  %50 = load ptr, ptr %8, align 8, !tbaa !8
  %51 = getelementptr inbounds nuw %struct.gz_state, ptr %50, i32 0, i32 18
  %52 = load i32, ptr %51, align 4, !tbaa !18
  %53 = icmp ne i32 %52, -5
  br i1 %53, label %54, label %55

54:                                               ; preds = %49
  store i32 -1, ptr %4, align 4
  store i32 1, ptr %9, align 4
  br label %57

55:                                               ; preds = %49, %44, %35
  %56 = load i32, ptr %7, align 4, !tbaa !9
  store i32 %56, ptr %4, align 4
  store i32 1, ptr %9, align 4
  br label %57

57:                                               ; preds = %55, %54, %33, %29, %12
  call void @llvm.lifetime.end.p0(i64 8, ptr %8) #8
  %58 = load i32, ptr %4, align 4
  ret i32 %58
}