; Function Attrs: nounwind uwtable
define i32 @gzread(ptr noundef %0, ptr noundef %1, i32 noundef %2) local_unnamed_addr #0 {
  %4 = icmp eq ptr %0, null
  br i1 %4, label %22, label %5

5:                                                ; preds = %3
  %6 = getelementptr inbounds nuw i8, ptr %0, i64 24
  %7 = load i32, ptr %6, align 8, !tbaa !3
  %.not = icmp eq i32 %7, 7247
  br i1 %.not, label %8, label %22

8:                                                ; preds = %5
  %9 = getelementptr inbounds nuw i8, ptr %0, i64 116
  %10 = load i32, ptr %9, align 4, !tbaa !14
  switch i32 %10, label %22 [
    i32 0, label %11
    i32 -5, label %11
  ]

11:                                               ; preds = %8, %8
  %12 = icmp slt i32 %2, 0
  br i1 %12, label %13, label %14

13:                                               ; preds = %11
  tail call void @gz_error(ptr noundef nonnull %0, i32 noundef -2, ptr noundef nonnull @.str) #12
  br label %22

14:                                               ; preds = %11
  %15 = zext nneg i32 %2 to i64
  %16 = tail call fastcc i64 @gz_read(ptr noundef %0, ptr noundef %1, i64 noundef %15)
  %17 = trunc i64 %16 to i32
  %18 = icmp eq i32 %17, 0
  br i1 %18, label %19, label %21

19:                                               ; preds = %14
  %20 = load i32, ptr %9, align 4, !tbaa !14
  switch i32 %20, label %22 [
    i32 0, label %21
    i32 -5, label %21
  ]

21:                                               ; preds = %19, %19, %14
  br label %22

22:                                               ; preds = %19, %5, %8, %3, %21, %13
  %.0 = phi i32 [ -1, %13 ], [ %17, %21 ], [ -1, %3 ], [ -1, %8 ], [ -1, %5 ], [ -1, %19 ]
  ret i32 %.0
}